target datalayout = "e-m:e-p270:32:32-p271:32:32-p272:64:64-i64:64-i128:128-f80:128-n8:16:32:64-S128"
target triple = "x86_64-pc-linux-gnu"

%struct.mbedtls_x509write_cert = type { i32, [20 x i8], i64, ptr, ptr, ptr, ptr, i32, [16 x i8], [16 x i8], ptr }
%struct.mbedtls_asn1_sequence = type { %struct.mbedtls_asn1_buf, ptr }
%struct.mbedtls_asn1_buf = type { i32, i64, ptr }

@.str.2 = private unnamed_addr constant [4 x i8] c"U\1D%\00", align 1

; Function Attrs: nounwind uwtable
define hidden i32 @mbedtls_x509write_crt_set_extension(ptr noundef %0, ptr noundef %1, i64 noundef %2, i32 noundef %3, ptr noundef %4, i64 noundef %5) #0 {
  %7 = alloca ptr, align 8
  %8 = alloca ptr, align 8
  %9 = alloca i64, align 8
  %10 = alloca i32, align 4
  %11 = alloca ptr, align 8
  %12 = alloca i64, align 8
  store ptr %0, ptr %7, align 8, !tbaa !3
  store ptr %1, ptr %8, align 8, !tbaa !19
  store i64 %2, ptr %9, align 8, !tbaa !23
  store i32 %3, ptr %10, align 4, !tbaa !14
  store ptr %4, ptr %11, align 8, !tbaa !19
  store i64 %5, ptr %12, align 8, !tbaa !23
  %13 = load ptr, ptr %7, align 8, !tbaa !3
  %14 = getelementptr inbounds nuw %struct.mbedtls_x509write_cert, ptr %13, i32 0, i32 10
  %15 = load ptr, ptr %8, align 8, !tbaa !19
  %16 = load i64, ptr %9, align 8, !tbaa !23
  %17 = load i32, ptr %10, align 4, !tbaa !14
  %18 = load ptr, ptr %11, align 8, !tbaa !19
  %19 = load i64, ptr %12, align 8, !tbaa !23
  %20 = call i32 @mbedtls_x509_set_extension(ptr noundef %14, ptr noundef %15, i64 noundef %16, i32 noundef %17, ptr noundef %18, i64 noundef %19)
  ret i32 %20
}

; Function Attrs: nounwind uwtable
define hidden i32 @mbedtls_x509write_crt_set_ext_key_usage(ptr noundef %0, ptr noundef %1) #0 {
  %3 = alloca i32, align 4
  %4 = alloca ptr, align 8
  %5 = alloca ptr, align 8
  %6 = alloca [256 x i8], align 16
  %7 = alloca ptr, align 8
  %8 = alloca i32, align 4
  %9 = alloca i64, align 8
  %10 = alloca ptr, align 8
  %11 = alloca ptr, align 8
  %12 = alloca i32, align 4
  store ptr %0, ptr %4, align 8, !tbaa !3
  store ptr %1, ptr %5, align 8, !tbaa !31
  call void @llvm.lifetime.start.p0(i64 256, ptr %6) #8
  call void @llvm.lifetime.start.p0(i64 8, ptr %7) #8
  %13 = getelementptr inbounds [256 x i8], ptr %6, i64 0, i64 0
  %14 = getelementptr inbounds nuw i8, ptr %13, i64 256
  store ptr %14, ptr %7, align 8, !tbaa !19
  call void @llvm.lifetime.start.p0(i64 4, ptr %8) #8
  call void @llvm.lifetime.start.p0(i64 8, ptr %9) #8
  store i64 0, ptr %9, align 8, !tbaa !23
  call void @llvm.lifetime.start.p0(i64 8, ptr %10) #8
  store ptr null, ptr %10, align 8, !tbaa !31
  call void @llvm.lifetime.start.p0(i64 8, ptr %11) #8
  %15 = getelementptr inbounds [256 x i8], ptr %6, i64 0, i64 0
  call void @llvm.memset.p0.i64(ptr align 16 %15, i8 0, i64 256, i1 false)
  %16 = load ptr, ptr %5, align 8, !tbaa !31
  %17 = icmp eq ptr %16, null
  br i1 %17, label %18, label %19

18:                                               ; preds = %2
  store i32 -10240, ptr %3, align 4
  store i32 1, ptr %12, align 4
  br label %134

19:                                               ; preds = %2
  br label %20

20:                                               ; preds = %98, %19
  %21 = load ptr, ptr %10, align 8, !tbaa !31
  %22 = load ptr, ptr %5, align 8, !tbaa !31
  %23 = icmp ne ptr %21, %22
  br i1 %23, label %24, label %100

24:                                               ; preds = %20
  %25 = load ptr, ptr %5, align 8, !tbaa !31
  store ptr %25, ptr %11, align 8, !tbaa !31
  br label %26

26:                                               ; preds = %33, %24
  %27 = load ptr, ptr %11, align 8, !tbaa !31
  %28 = getelementptr inbounds nuw %struct.mbedtls_asn1_sequence, ptr %27, i32 0, i32 1
  %29 = load ptr, ptr %28, align 8, !tbaa !33
  %30 = load ptr, ptr %10, align 8, !tbaa !31
  %31 = icmp ne ptr %29, %30
  br i1 %31, label %32, label %37

32:                                               ; preds = %26
  br label %33

33:                                               ; preds = %32
  %34 = load ptr, ptr %11, align 8, !tbaa !31
  %35 = getelementptr inbounds nuw %struct.mbedtls_asn1_sequence, ptr %34, i32 0, i32 1
  %36 = load ptr, ptr %35, align 8, !tbaa !33
  store ptr %36, ptr %11, align 8, !tbaa !31
  br label %26, !llvm.loop !36

37:                                               ; preds = %26
  %38 = load ptr, ptr %11, align 8, !tbaa !31
  %39 = getelementptr inbounds nuw %struct.mbedtls_asn1_sequence, ptr %38, i32 0, i32 0
  %40 = getelementptr inbounds nuw %struct.mbedtls_asn1_buf, ptr %39, i32 0, i32 0
  %41 = load i32, ptr %40, align 8, !tbaa !38
  %42 = icmp ne i32 %41, 6
  br i1 %42, label %43, label %44

43:                                               ; preds = %37
  store i32 -10240, ptr %3, align 4
  store i32 1, ptr %12, align 4
  br label %134

44:                                               ; preds = %37
  br label %45

45:                                               ; preds = %44
  %46 = getelementptr inbounds [256 x i8], ptr %6, i64 0, i64 0
  %47 = load ptr, ptr %11, align 8, !tbaa !31
  %48 = getelementptr inbounds nuw %struct.mbedtls_asn1_sequence, ptr %47, i32 0, i32 0
  %49 = getelementptr inbounds nuw %struct.mbedtls_asn1_buf, ptr %48, i32 0, i32 2
  %50 = load ptr, ptr %49, align 8, !tbaa !39
  %51 = load ptr, ptr %11, align 8, !tbaa !31
  %52 = getelementptr inbounds nuw %struct.mbedtls_asn1_sequence, ptr %51, i32 0, i32 0
  %53 = getelementptr inbounds nuw %struct.mbedtls_asn1_buf, ptr %52, i32 0, i32 1
  %54 = load i64, ptr %53, align 8, !tbaa !40
  %55 = call i32 @mbedtls_asn1_write_raw_buffer(ptr noundef %7, ptr noundef %46, ptr noundef %50, i64 noundef %54)
  store i32 %55, ptr %8, align 4, !tbaa !14
  %56 = icmp slt i32 %55, 0
  br i1 %56, label %57, label %59

57:                                               ; preds = %45
  %58 = load i32, ptr %8, align 4, !tbaa !14
  store i32 %58, ptr %3, align 4
  store i32 1, ptr %12, align 4
  br label %134

59:                                               ; preds = %45
  %60 = load i32, ptr %8, align 4, !tbaa !14
  %61 = sext i32 %60 to i64
  %62 = load i64, ptr %9, align 8, !tbaa !23
  %63 = add i64 %62, %61
  store i64 %63, ptr %9, align 8, !tbaa !23
  br label %64

64:                                               ; preds = %59
  br label %65

65:                                               ; preds = %64
  br label %66

66:                                               ; preds = %65
  br label %67

67:                                               ; preds = %66
  %68 = getelementptr inbounds [256 x i8], ptr %6, i64 0, i64 0
  %69 = load ptr, ptr %11, align 8, !tbaa !31
  %70 = getelementptr inbounds nuw %struct.mbedtls_asn1_sequence, ptr %69, i32 0, i32 0
  %71 = getelementptr inbounds nuw %struct.mbedtls_asn1_buf, ptr %70, i32 0, i32 1
  %72 = load i64, ptr %71, align 8, !tbaa !40
  %73 = call i32 @mbedtls_asn1_write_len(ptr noundef %7, ptr noundef %68, i64 noundef %72)
  store i32 %73, ptr %8, align 4, !tbaa !14
  %74 = icmp slt i32 %73, 0
  br i1 %74, label %75, label %77

75:                                               ; preds = %67
  %76 = load i32, ptr %8, align 4, !tbaa !14
  store i32 %76, ptr %3, align 4
  store i32 1, ptr %12, align 4
  br label %134

77:                                               ; preds = %67
  %78 = load i32, ptr %8, align 4, !tbaa !14
  %79 = sext i32 %78 to i64
  %80 = load i64, ptr %9, align 8, !tbaa !23
  %81 = add i64 %80, %79
  store i64 %81, ptr %9, align 8, !tbaa !23
  br label %82

82:                                               ; preds = %77
  br label %83

83:                                               ; preds = %82
  br label %84

84:                                               ; preds = %83
  br label %85

85:                                               ; preds = %84
  %86 = getelementptr inbounds [256 x i8], ptr %6, i64 0, i64 0
  %87 = call i32 @mbedtls_asn1_write_tag(ptr noundef %7, ptr noundef %86, i8 noundef zeroext 6)
  store i32 %87, ptr %8, align 4, !tbaa !14
  %88 = icmp slt i32 %87, 0
  br i1 %88, label %89, label %91

89:                                               ; preds = %85
  %90 = load i32, ptr %8, align 4, !tbaa !14
  store i32 %90, ptr %3, align 4
  store i32 1, ptr %12, align 4
  br label %134

91:                                               ; preds = %85
  %92 = load i32, ptr %8, align 4, !tbaa !14
  %93 = sext i32 %92 to i64
  %94 = load i64, ptr %9, align 8, !tbaa !23
  %95 = add i64 %94, %93
  store i64 %95, ptr %9, align 8, !tbaa !23
  br label %96

96:                                               ; preds = %91
  br label %97

97:                                               ; preds = %96
  br label %98

98:                                               ; preds = %97
  %99 = load ptr, ptr %11, align 8, !tbaa !31
  store ptr %99, ptr %10, align 8, !tbaa !31
  br label %20, !llvm.loop !41

100:                                              ; preds = %20
  br label %101

101:                                              ; preds = %100
  %102 = getelementptr inbounds [256 x i8], ptr %6, i64 0, i64 0
  %103 = load i64, ptr %9, align 8, !tbaa !23
  %104 = call i32 @mbedtls_asn1_write_len(ptr noundef %7, ptr noundef %102, i64 noundef %103)
  store i32 %104, ptr %8, align 4, !tbaa !14
  %105 = icmp slt i32 %104, 0
  br i1 %105, label %106, label %108

106:                                              ; preds = %101
  %107 = load i32, ptr %8, align 4, !tbaa !14
  store i32 %107, ptr %3, align 4
  store i32 1, ptr %12, align 4
  br label %134

108:                                              ; preds = %101
  %109 = load i32, ptr %8, align 4, !tbaa !14
  %110 = sext i32 %109 to i64
  %111 = load i64, ptr %9, align 8, !tbaa !23
  %112 = add i64 %111, %110
  store i64 %112, ptr %9, align 8, !tbaa !23
  br label %113

113:                                              ; preds = %108
  br label %114

114:                                              ; preds = %113
  br label %115

115:                                              ; preds = %114
  br label %116

116:                                              ; preds = %115
  %117 = getelementptr inbounds [256 x i8], ptr %6, i64 0, i64 0
  %118 = call i32 @mbedtls_asn1_write_tag(ptr noundef %7, ptr noundef %117, i8 noundef zeroext 48)
  store i32 %118, ptr %8, align 4, !tbaa !14
  %119 = icmp slt i32 %118, 0
  br i1 %119, label %120, label %122

120:                                              ; preds = %116
  %121 = load i32, ptr %8, align 4, !tbaa !14
  store i32 %121, ptr %3, align 4
  store i32 1, ptr %12, align 4
  br label %134

122:                                              ; preds = %116
  %123 = load i32, ptr %8, align 4, !tbaa !14
  %124 = sext i32 %123 to i64
  %125 = load i64, ptr %9, align 8, !tbaa !23
  %126 = add i64 %125, %124
  store i64 %126, ptr %9, align 8, !tbaa !23
  br label %127

127:                                              ; preds = %122
  br label %128

128:                                              ; preds = %127
  br label %129

129:                                              ; preds = %128
  %130 = load ptr, ptr %4, align 8, !tbaa !3
  %131 = load ptr, ptr %7, align 8, !tbaa !19
  %132 = load i64, ptr %9, align 8, !tbaa !23
  %133 = call i32 @mbedtls_x509write_crt_set_extension(ptr noundef %130, ptr noundef @.str.2, i64 noundef 3, i32 noundef 1, ptr noundef %131, i64 noundef %132)
  store i32 %133, ptr %3, align 4
  store i32 1, ptr %12, align 4
  br label %134

134:                                              ; preds = %129, %120, %106, %89, %75, %57, %43, %18
  call void @llvm.lifetime.end.p0(i64 8, ptr %11) #8
  call void @llvm.lifetime.end.p0(i64 8, ptr %10) #8
  call void @llvm.lifetime.end.p0(i64 8, ptr %9) #8
  call void @llvm.lifetime.end.p0(i64 4, ptr %8) #8
  call void @llvm.lifetime.end.p0(i64 8, ptr %7) #8
  call void @llvm.lifetime.end.p0(i64 256, ptr %6) #8
  %135 = load i32, ptr %3, align 4
  ret i32 %135
}