; Function Attrs: nounwind uwtable
define hidden i32 @mbedtls_x509write_crt_set_ext_key_usage(ptr noundef %0, ptr noundef readonly %1) local_unnamed_addr #2 {
  %3 = alloca [256 x i8], align 16
  %4 = alloca ptr, align 8
  call void @llvm.lifetime.start.p0(i64 256, ptr nonnull %3) #11
  call void @llvm.lifetime.start.p0(i64 8, ptr nonnull %4) #11
  %5 = getelementptr inbounds nuw i8, ptr %3, i64 256
  store ptr %5, ptr %4, align 8, !tbaa !17
  call void @llvm.memset.p0.i64(ptr noundef nonnull align 16 dereferenceable(256) %3, i8 0, i64 256, i1 false)
  %6 = icmp eq ptr %1, null
  br i1 %6, label %.loopexit, label %.preheader

.preheader:                                       ; preds = %2, %26
  %.03049 = phi ptr [ %.0, %26 ], [ null, %2 ]
  %.03148 = phi i64 [ %32, %26 ], [ 0, %2 ]
  br label %7

7:                                                ; preds = %.preheader, %7
  %.0 = phi ptr [ %9, %7 ], [ %1, %.preheader ]
  %8 = getelementptr inbounds nuw i8, ptr %.0, i64 24
  %9 = load ptr, ptr %8, align 8, !tbaa !20
  %.not44 = icmp eq ptr %9, %.03049
  br i1 %.not44, label %10, label %7, !llvm.loop !24

10:                                               ; preds = %7
  %11 = load i32, ptr %.0, align 8, !tbaa !26
  %.not45 = icmp eq i32 %11, 6
  br i1 %.not45, label %12, label %.loopexit

12:                                               ; preds = %10
  %13 = getelementptr inbounds nuw i8, ptr %.0, i64 16
  %14 = load ptr, ptr %13, align 8, !tbaa !27
  %15 = getelementptr inbounds nuw i8, ptr %.0, i64 8
  %16 = load i64, ptr %15, align 8, !tbaa !28
  %17 = call i32 @mbedtls_asn1_write_raw_buffer(ptr noundef nonnull %4, ptr noundef nonnull %3, ptr noundef %14, i64 noundef %16) #11
  %18 = icmp slt i32 %17, 0
  br i1 %18, label %.loopexit, label %19

19:                                               ; preds = %12
  %20 = load i64, ptr %15, align 8, !tbaa !28
  %21 = call i32 @mbedtls_asn1_write_len(ptr noundef nonnull %4, ptr noundef nonnull %3, i64 noundef %20) #11
  %22 = icmp slt i32 %21, 0
  br i1 %22, label %.loopexit, label %23

23:                                               ; preds = %19
  %24 = call i32 @mbedtls_asn1_write_tag(ptr noundef nonnull %4, ptr noundef nonnull %3, i8 noundef zeroext 6) #11
  %25 = icmp slt i32 %24, 0
  br i1 %25, label %.loopexit, label %26

26:                                               ; preds = %23
  %27 = zext nneg i32 %17 to i64
  %28 = add i64 %.03148, %27
  %29 = zext nneg i32 %21 to i64
  %30 = add i64 %28, %29
  %31 = zext nneg i32 %24 to i64
  %32 = add i64 %30, %31
  %.not = icmp eq ptr %.0, %1
  br i1 %.not, label %33, label %.preheader, !llvm.loop !29

33:                                               ; preds = %26
  %34 = call i32 @mbedtls_asn1_write_len(ptr noundef nonnull %4, ptr noundef nonnull %3, i64 noundef %32) #11
  %35 = icmp slt i32 %34, 0
  br i1 %35, label %.loopexit, label %36

36:                                               ; preds = %33
  %37 = call i32 @mbedtls_asn1_write_tag(ptr noundef nonnull %4, ptr noundef nonnull %3, i8 noundef zeroext 48) #11
  %38 = icmp slt i32 %37, 0
  br i1 %38, label %.loopexit, label %39

39:                                               ; preds = %36
  %40 = zext nneg i32 %34 to i64
  %41 = add i64 %32, %40
  %42 = zext nneg i32 %37 to i64
  %43 = add i64 %41, %42
  %44 = load ptr, ptr %4, align 8, !tbaa !17
  %45 = getelementptr inbounds nuw i8, ptr %0, i64 104
  %46 = call i32 @mbedtls_x509_set_extension(ptr noundef nonnull %45, ptr noundef nonnull @.str.2, i64 noundef 3, i32 noundef 1, ptr noundef %44, i64 noundef %43) #11
  br label %.loopexit

.loopexit:                                        ; preds = %23, %19, %12, %10, %36, %33, %2, %39
  %.032 = phi i32 [ %46, %39 ], [ -10240, %2 ], [ %34, %33 ], [ %37, %36 ], [ %24, %23 ], [ %21, %19 ], [ %17, %12 ], [ -10240, %10 ]
  call void @llvm.lifetime.end.p0(i64 8, ptr nonnull %4) #11
  call void @llvm.lifetime.end.p0(i64 256, ptr nonnull %3) #11
  ret i32 %.032
}